
build/output.elf:     file format elf32-littlearm


Disassembly of section .init:

00000000 <_start>:
   0:	ea002035 	b	80dc <main>

Disassembly of section .text:

00008000 <GetGpioAddress>:
    8000:	e59f00d0 	ldr	r0, [pc, #208]	; 80d8 <GetGpio+0x34>
    8004:	e1a0f00e 	mov	pc, lr

00008008 <SetGpioFunction>:
    8008:	e3500035 	cmp	r0, #53	; 0x35
    800c:	93510007 	cmpls	r1, #7
    8010:	81a0f00e 	movhi	pc, lr
    8014:	e52de004 	push	{lr}		; (str lr, [sp, #-4]!)
    8018:	e92d1010 	push	{r4, ip}
    801c:	e1a02000 	mov	r2, r0
    8020:	ebfffff6 	bl	8000 <GetGpioAddress>

00008024 <functionLoop$>:
    8024:	e3520009 	cmp	r2, #9
    8028:	8242200a 	subhi	r2, r2, #10
    802c:	82800004 	addhi	r0, r0, #4
    8030:	8afffffb 	bhi	8024 <functionLoop$>
    8034:	e0822082 	add	r2, r2, r2, lsl #1
    8038:	e1a01211 	lsl	r1, r1, r2
    803c:	e3a03007 	mov	r3, #7
    8040:	e1a03213 	lsl	r3, r3, r2
    8044:	e1e03003 	mvn	r3, r3
    8048:	e5902000 	ldr	r2, [r0]
    804c:	e0022003 	and	r2, r2, r3
    8050:	e1811002 	orr	r1, r1, r2
    8054:	e5801000 	str	r1, [r0]
    8058:	e8bd1010 	pop	{r4, ip}
    805c:	e49df004 	pop	{pc}		; (ldr pc, [sp], #4)

00008060 <SetGpio>:
    8060:	e3500035 	cmp	r0, #53	; 0x35
    8064:	81a0f00e 	movhi	pc, lr
    8068:	e52de004 	push	{lr}		; (str lr, [sp, #-4]!)
    806c:	e92d1010 	push	{r4, ip}
    8070:	e1a02000 	mov	r2, r0
    8074:	ebffffe1 	bl	8000 <GetGpioAddress>
    8078:	e1a032a2 	lsr	r3, r2, #5
    807c:	e1a03103 	lsl	r3, r3, #2
    8080:	e0800003 	add	r0, r0, r3
    8084:	e202201f 	and	r2, r2, #31
    8088:	e3a03001 	mov	r3, #1
    808c:	e1a03213 	lsl	r3, r3, r2
    8090:	e3310000 	teq	r1, #0
    8094:	05803028 	streq	r3, [r0, #40]	; 0x28
    8098:	1580301c 	strne	r3, [r0, #28]
    809c:	e8bd1010 	pop	{r4, ip}
    80a0:	e49df004 	pop	{pc}		; (ldr pc, [sp], #4)

000080a4 <GetGpio>:
    80a4:	e52de004 	push	{lr}		; (str lr, [sp, #-4]!)
    80a8:	e92d1010 	push	{r4, ip}
    80ac:	e1a06000 	mov	r6, r0
    80b0:	e59f4020 	ldr	r4, [pc, #32]	; 80d8 <GetGpio+0x34>
    80b4:	e5947034 	ldr	r7, [r4, #52]	; 0x34
    80b8:	e3a09001 	mov	r9, #1
    80bc:	e1a09619 	lsl	r9, r9, r6
    80c0:	e0077009 	and	r7, r7, r9
    80c4:	e3370000 	teq	r7, #0
    80c8:	13a00001 	movne	r0, #1
    80cc:	03a00000 	moveq	r0, #0
    80d0:	e8bd1010 	pop	{r4, ip}
    80d4:	e49df004 	pop	{pc}		; (ldr pc, [sp], #4)
    80d8:	20200000 	.word	0x20200000

000080dc <main>:
    80dc:	e3a0d902 	mov	sp, #32768	; 0x8000

000080e0 <revisar>:
    80e0:	e3a06018 	mov	r6, #24
    80e4:	e59f4070 	ldr	r4, [pc, #112]	; 815c <infinito+0x4>

000080e8 <reproducir>:
    80e8:	e3a00007 	mov	r0, #7
    80ec:	e3a01001 	mov	r1, #1
    80f0:	ebffffc4 	bl	8008 <SetGpioFunction>
    80f4:	e3a04005 	mov	r4, #5
    80f8:	e59f5060 	ldr	r5, [pc, #96]	; 8160 <infinito+0x8>

000080fc <siguiente1>:
    80fc:	e3540000 	cmp	r4, #0
    8100:	0a000014 	beq	8158 <infinito>
    8104:	e4956004 	ldr	r6, [r5], #4
    8108:	e59f8054 	ldr	r8, [pc, #84]	; 8164 <infinito+0xc>
    810c:	e0488006 	sub	r8, r8, r6
    8110:	e59f9050 	ldr	r9, [pc, #80]	; 8168 <infinito+0x10>
    8114:	eb000016 	bl	8174 <GetTimeStamp>
    8118:	e0899000 	add	r9, r9, r0

0000811c <pulso>:
    811c:	e1590000 	cmp	r9, r0
    8120:	b2444001 	sublt	r4, r4, #1
    8124:	bafffff4 	blt	80fc <siguiente1>
    8128:	e3a00007 	mov	r0, #7
    812c:	e3a01001 	mov	r1, #1
    8130:	ebffffca 	bl	8060 <SetGpio>
    8134:	e1a00006 	mov	r0, r6
    8138:	eb000011 	bl	8184 <Wait>
    813c:	e3a00007 	mov	r0, #7
    8140:	e3a01000 	mov	r1, #0
    8144:	ebffffc5 	bl	8060 <SetGpio>
    8148:	e1a00008 	mov	r0, r8
    814c:	eb00000c 	bl	8184 <Wait>
    8150:	eb000007 	bl	8174 <GetTimeStamp>
    8154:	eafffff0 	b	811c <pulso>

00008158 <infinito>:
    8158:	eafffffe 	b	8158 <infinito>
    815c:	20200000 	.word	0x20200000
    8160:	000081b4 	.word	0x000081b4
    8164:	00004e20 	.word	0x00004e20
    8168:	001e8480 	.word	0x001e8480

0000816c <GetSystemTimerBase>:
    816c:	e59f003c 	ldr	r0, [pc, #60]	; 81b0 <loop$+0x18>
    8170:	e1a0f00e 	mov	pc, lr

00008174 <GetTimeStamp>:
    8174:	e52de004 	push	{lr}		; (str lr, [sp, #-4]!)
    8178:	ebfffffb 	bl	816c <GetSystemTimerBase>
    817c:	e1c000d4 	ldrd	r0, [r0, #4]
    8180:	e49df004 	pop	{pc}		; (ldr pc, [sp], #4)

00008184 <Wait>:
    8184:	e1a02000 	mov	r2, r0
    8188:	e52de004 	push	{lr}		; (str lr, [sp, #-4]!)
    818c:	e92d1010 	push	{r4, ip}
    8190:	ebfffff7 	bl	8174 <GetTimeStamp>
    8194:	e1a03000 	mov	r3, r0

00008198 <loop$>:
    8198:	ebfffff5 	bl	8174 <GetTimeStamp>
    819c:	e0401003 	sub	r1, r0, r3
    81a0:	e1510002 	cmp	r1, r2
    81a4:	9afffffb 	bls	8198 <loop$>
    81a8:	e8bd1010 	pop	{r4, ip}
    81ac:	e49df004 	pop	{pc}		; (ldr pc, [sp], #4)
    81b0:	20003000 	.word	0x20003000
